; Function Attrs: mustprogress nofree norecurse nosync nounwind willreturn memory(argmem: readwrite, inaccessiblemem: readwrite) uwtable
define void @_ZNK3net17PacketNumberQueue4rendEv(ptr dead_on_unwind noalias writable writeonly sret(%"class.std::reverse_iterator") align 8 captures(none) initializes((0, 8)) %0, ptr noundef nonnull readonly align 8 captures(none) dereferenceable(48) %1) local_unnamed_addr #15 align 2 {
  tail call void @llvm.experimental.noalias.scope.decl(metadata !176)
  tail call void @llvm.experimental.noalias.scope.decl(metadata !179)
  tail call void @llvm.experimental.noalias.scope.decl(metadata !182)
  %3 = getelementptr inbounds nuw i8, ptr %1, i64 24
  %4 = load ptr, ptr %3, align 8, !tbaa !128, !noalias !185
  store ptr %4, ptr %0, align 8, !tbaa !126, !alias.scope !185
  ret void
}